target datalayout = "e-m:e-p270:32:32-p271:32:32-p272:64:64-i64:64-i128:128-f80:128-n8:16:32:64-S128"
target triple = "x86_64-pc-linux-gnu"

%struct.wc_Sha256 = type { [8 x i32], [16 x i32], i32, i32, i32, ptr, [8 x i8] }

; Function Attrs: inlinehint nounwind uwtable
define internal i32 @rotlFixed(i32 noundef %0, i32 noundef %1) #2 {
  %3 = alloca i32, align 4
  %4 = alloca i32, align 4
  store i32 %0, ptr %3, align 4, !tbaa !9
  store i32 %1, ptr %4, align 4, !tbaa !9
  %5 = load i32, ptr %3, align 4, !tbaa !9
  %6 = load i32, ptr %4, align 4, !tbaa !9
  %7 = shl i32 %5, %6
  %8 = load i32, ptr %3, align 4, !tbaa !9
  %9 = load i32, ptr %4, align 4, !tbaa !9
  %10 = zext i32 %9 to i64
  %11 = sub i64 32, %10
  %12 = trunc i64 %11 to i32
  %13 = lshr i32 %8, %12
  %14 = or i32 %7, %13
  ret i32 %14
}

; Function Attrs: inlinehint nounwind uwtable
define internal i32 @rotrFixed(i32 noundef %0, i32 noundef %1) #2 {
  %3 = alloca i32, align 4
  %4 = alloca i32, align 4
  store i32 %0, ptr %3, align 4, !tbaa !9
  store i32 %1, ptr %4, align 4, !tbaa !9
  %5 = load i32, ptr %3, align 4, !tbaa !9
  %6 = load i32, ptr %4, align 4, !tbaa !9
  %7 = lshr i32 %5, %6
  %8 = load i32, ptr %3, align 4, !tbaa !9
  %9 = load i32, ptr %4, align 4, !tbaa !9
  %10 = zext i32 %9 to i64
  %11 = sub i64 32, %10
  %12 = trunc i64 %11 to i32
  %13 = shl i32 %8, %12
  %14 = or i32 %7, %13
  ret i32 %14
}

; Function Attrs: inlinehint nounwind uwtable
define internal i32 @ByteReverseWord32(i32 noundef %0) #2 {
  %2 = alloca i32, align 4
  store i32 %0, ptr %2, align 4, !tbaa !9
  %3 = load i32, ptr %2, align 4, !tbaa !9
  %4 = call i32 @rotrFixed(i32 noundef %3, i32 noundef 8)
  %5 = and i32 %4, -16711936
  %6 = load i32, ptr %2, align 4, !tbaa !9
  %7 = call i32 @rotlFixed(i32 noundef %6, i32 noundef 8)
  %8 = and i32 %7, 16711935
  %9 = or i32 %5, %8
  ret i32 %9
}

; Function Attrs: inlinehint nounwind uwtable
define internal void @ForceZero(ptr noundef %0, i32 noundef %1) #2 {
  %3 = alloca ptr, align 8
  %4 = alloca i32, align 4
  %5 = alloca ptr, align 8
  %6 = alloca ptr, align 8
  %7 = alloca i32, align 4
  store ptr %0, ptr %3, align 8, !tbaa !8
  store i32 %1, ptr %4, align 4, !tbaa !9
  call void @llvm.lifetime.start.p0(i64 8, ptr %5) #5
  %8 = load ptr, ptr %3, align 8, !tbaa !8
  store ptr %8, ptr %5, align 8, !tbaa !16
  call void @llvm.lifetime.start.p0(i64 8, ptr %6) #5
  call void @llvm.lifetime.start.p0(i64 4, ptr %7) #5
  %9 = load ptr, ptr %5, align 8, !tbaa !16
  %10 = ptrtoint ptr %9 to i64
  %11 = and i64 %10, 7
  %12 = sub i64 8, %11
  %13 = and i64 %12, 7
  %14 = trunc i64 %13 to i32
  store i32 %14, ptr %7, align 4, !tbaa !9
  %15 = load i32, ptr %4, align 4, !tbaa !9
  %16 = load i32, ptr %7, align 4, !tbaa !9
  %17 = icmp ult i32 %15, %16
  br i1 %17, label %18, label %20

18:                                               ; preds = %2
  %19 = load i32, ptr %4, align 4, !tbaa !9
  store i32 %19, ptr %7, align 4, !tbaa !9
  br label %20

20:                                               ; preds = %18, %2
  %21 = load i32, ptr %7, align 4, !tbaa !9
  %22 = load i32, ptr %4, align 4, !tbaa !9
  %23 = sub i32 %22, %21
  store i32 %23, ptr %4, align 4, !tbaa !9
  br label %24

24:                                               ; preds = %28, %20
  %25 = load i32, ptr %7, align 4, !tbaa !9
  %26 = add i32 %25, -1
  store i32 %26, ptr %7, align 4, !tbaa !9
  %27 = icmp ne i32 %25, 0
  br i1 %27, label %28, label %31

28:                                               ; preds = %24
  %29 = load ptr, ptr %5, align 8, !tbaa !16
  %30 = getelementptr inbounds nuw i8, ptr %29, i32 1
  store ptr %30, ptr %5, align 8, !tbaa !16
  store volatile i8 0, ptr %29, align 1, !tbaa !24
  br label %24, !llvm.loop !25

31:                                               ; preds = %24
  %32 = load ptr, ptr %5, align 8, !tbaa !16
  store ptr %32, ptr %6, align 8, !tbaa !26
  br label %33

33:                                               ; preds = %40, %31
  %34 = load i32, ptr %4, align 4, !tbaa !9
  %35 = zext i32 %34 to i64
  %36 = icmp uge i64 %35, 8
  br i1 %36, label %37, label %43

37:                                               ; preds = %33
  %38 = load ptr, ptr %6, align 8, !tbaa !26
  %39 = getelementptr inbounds nuw i64, ptr %38, i32 1
  store ptr %39, ptr %6, align 8, !tbaa !26
  store volatile i64 0, ptr %38, align 8, !tbaa !28
  br label %40

40:                                               ; preds = %37
  %41 = load i32, ptr %4, align 4, !tbaa !9
  %42 = sub i32 %41, 8
  store i32 %42, ptr %4, align 4, !tbaa !9
  br label %33, !llvm.loop !30

43:                                               ; preds = %33
  %44 = load ptr, ptr %6, align 8, !tbaa !26
  store ptr %44, ptr %5, align 8, !tbaa !16
  br label %45

45:                                               ; preds = %49, %43
  %46 = load i32, ptr %4, align 4, !tbaa !9
  %47 = add i32 %46, -1
  store i32 %47, ptr %4, align 4, !tbaa !9
  %48 = icmp ne i32 %46, 0
  br i1 %48, label %49, label %52

49:                                               ; preds = %45
  %50 = load ptr, ptr %5, align 8, !tbaa !16
  %51 = getelementptr inbounds nuw i8, ptr %50, i32 1
  store ptr %51, ptr %5, align 8, !tbaa !16
  store volatile i8 0, ptr %50, align 1, !tbaa !24
  br label %45, !llvm.loop !31

52:                                               ; preds = %45
  call void @llvm.lifetime.end.p0(i64 4, ptr %7) #5
  call void @llvm.lifetime.end.p0(i64 8, ptr %6) #5
  call void @llvm.lifetime.end.p0(i64 8, ptr %5) #5
  ret void
}

; Function Attrs: nounwind uwtable
define internal i32 @InitSha256(ptr noundef %0) #0 {
  %2 = alloca ptr, align 8
  store ptr %0, ptr %2, align 8, !tbaa !3
  %3 = load ptr, ptr %2, align 8, !tbaa !3
  %4 = getelementptr inbounds nuw %struct.wc_Sha256, ptr %3, i32 0, i32 0
  %5 = getelementptr inbounds [8 x i32], ptr %4, i64 0, i64 0
  call void @llvm.memset.p0.i64(ptr align 16 %5, i8 0, i64 32, i1 false)
  %6 = load ptr, ptr %2, align 8, !tbaa !3
  %7 = getelementptr inbounds nuw %struct.wc_Sha256, ptr %6, i32 0, i32 0
  %8 = getelementptr inbounds [8 x i32], ptr %7, i64 0, i64 0
  store i32 1779033703, ptr %8, align 16, !tbaa !9
  %9 = load ptr, ptr %2, align 8, !tbaa !3
  %10 = getelementptr inbounds nuw %struct.wc_Sha256, ptr %9, i32 0, i32 0
  %11 = getelementptr inbounds [8 x i32], ptr %10, i64 0, i64 1
  store i32 -1150833019, ptr %11, align 4, !tbaa !9
  %12 = load ptr, ptr %2, align 8, !tbaa !3
  %13 = getelementptr inbounds nuw %struct.wc_Sha256, ptr %12, i32 0, i32 0
  %14 = getelementptr inbounds [8 x i32], ptr %13, i64 0, i64 2
  store i32 1013904242, ptr %14, align 8, !tbaa !9
  %15 = load ptr, ptr %2, align 8, !tbaa !3
  %16 = getelementptr inbounds nuw %struct.wc_Sha256, ptr %15, i32 0, i32 0
  %17 = getelementptr inbounds [8 x i32], ptr %16, i64 0, i64 3
  store i32 -1521486534, ptr %17, align 4, !tbaa !9
  %18 = load ptr, ptr %2, align 8, !tbaa !3
  %19 = getelementptr inbounds nuw %struct.wc_Sha256, ptr %18, i32 0, i32 0
  %20 = getelementptr inbounds [8 x i32], ptr %19, i64 0, i64 4
  store i32 1359893119, ptr %20, align 16, !tbaa !9
  %21 = load ptr, ptr %2, align 8, !tbaa !3
  %22 = getelementptr inbounds nuw %struct.wc_Sha256, ptr %21, i32 0, i32 0
  %23 = getelementptr inbounds [8 x i32], ptr %22, i64 0, i64 5
  store i32 -1694144372, ptr %23, align 4, !tbaa !9
  %24 = load ptr, ptr %2, align 8, !tbaa !3
  %25 = getelementptr inbounds nuw %struct.wc_Sha256, ptr %24, i32 0, i32 0
  %26 = getelementptr inbounds [8 x i32], ptr %25, i64 0, i64 6
  store i32 528734635, ptr %26, align 8, !tbaa !9
  %27 = load ptr, ptr %2, align 8, !tbaa !3
  %28 = getelementptr inbounds nuw %struct.wc_Sha256, ptr %27, i32 0, i32 0
  %29 = getelementptr inbounds [8 x i32], ptr %28, i64 0, i64 7
  store i32 1541459225, ptr %29, align 4, !tbaa !9
  %30 = load ptr, ptr %2, align 8, !tbaa !3
  %31 = getelementptr inbounds nuw %struct.wc_Sha256, ptr %30, i32 0, i32 2
  store i32 0, ptr %31, align 16, !tbaa !13
  %32 = load ptr, ptr %2, align 8, !tbaa !3
  %33 = getelementptr inbounds nuw %struct.wc_Sha256, ptr %32, i32 0, i32 3
  store i32 0, ptr %33, align 4, !tbaa !14
  %34 = load ptr, ptr %2, align 8, !tbaa !3
  %35 = getelementptr inbounds nuw %struct.wc_Sha256, ptr %34, i32 0, i32 4
  store i32 0, ptr %35, align 8, !tbaa !15
  ret i32 0
}

; Function Attrs: inlinehint nounwind uwtable
define internal void @ByteReverseWords(ptr noundef %0, ptr noundef %1, i32 noundef %2) #2 {
  %4 = alloca ptr, align 8
  %5 = alloca ptr, align 8
  %6 = alloca i32, align 4
  %7 = alloca i32, align 4
  %8 = alloca i32, align 4
  %9 = alloca ptr, align 8
  %10 = alloca ptr, align 8
  %11 = alloca i32, align 4
  store ptr %0, ptr %4, align 8, !tbaa !18
  store ptr %1, ptr %5, align 8, !tbaa !18
  store i32 %2, ptr %6, align 4, !tbaa !9
  call void @llvm.lifetime.start.p0(i64 4, ptr %7) #5
  %12 = load ptr, ptr %5, align 8, !tbaa !18
  %13 = ptrtoint ptr %12 to i64
  %14 = and i64 %13, 3
  %15 = icmp eq i64 %14, 0
  br i1 %15, label %16, label %43

16:                                               ; preds = %3
  %17 = load ptr, ptr %4, align 8, !tbaa !18
  %18 = ptrtoint ptr %17 to i64
  %19 = and i64 %18, 3
  %20 = icmp eq i64 %19, 0
  br i1 %20, label %21, label %43

21:                                               ; preds = %16
  call void @llvm.lifetime.start.p0(i64 4, ptr %8) #5
  %22 = load i32, ptr %6, align 4, !tbaa !9
  %23 = udiv i32 %22, 4
  store i32 %23, ptr %8, align 4, !tbaa !9
  store i32 0, ptr %7, align 4, !tbaa !9
  br label %24

24:                                               ; preds = %39, %21
  %25 = load i32, ptr %7, align 4, !tbaa !9
  %26 = load i32, ptr %8, align 4, !tbaa !9
  %27 = icmp ult i32 %25, %26
  br i1 %27, label %28, label %42

28:                                               ; preds = %24
  %29 = load ptr, ptr %5, align 8, !tbaa !18
  %30 = load i32, ptr %7, align 4, !tbaa !9
  %31 = zext i32 %30 to i64
  %32 = getelementptr inbounds nuw i32, ptr %29, i64 %31
  %33 = load i32, ptr %32, align 4, !tbaa !9
  %34 = call i32 @ByteReverseWord32(i32 noundef %33)
  %35 = load ptr, ptr %4, align 8, !tbaa !18
  %36 = load i32, ptr %7, align 4, !tbaa !9
  %37 = zext i32 %36 to i64
  %38 = getelementptr inbounds nuw i32, ptr %35, i64 %37
  store i32 %34, ptr %38, align 4, !tbaa !9
  br label %39

39:                                               ; preds = %28
  %40 = load i32, ptr %7, align 4, !tbaa !9
  %41 = add i32 %40, 1
  store i32 %41, ptr %7, align 4, !tbaa !9
  br label %24, !llvm.loop !22

42:                                               ; preds = %24
  call void @llvm.lifetime.end.p0(i64 4, ptr %8) #5
  br label %67

43:                                               ; preds = %16, %3
  call void @llvm.lifetime.start.p0(i64 8, ptr %9) #5
  %44 = load ptr, ptr %5, align 8, !tbaa !18
  store ptr %44, ptr %9, align 8, !tbaa !16
  call void @llvm.lifetime.start.p0(i64 8, ptr %10) #5
  %45 = load ptr, ptr %4, align 8, !tbaa !18
  store ptr %45, ptr %10, align 8, !tbaa !16
  call void @llvm.lifetime.start.p0(i64 4, ptr %11) #5
  %46 = load i32, ptr %6, align 4, !tbaa !9
  %47 = and i32 %46, -4
  store i32 %47, ptr %6, align 4, !tbaa !9
  store i32 0, ptr %7, align 4, !tbaa !9
  br label %48

48:                                               ; preds = %63, %43
  %49 = load i32, ptr %7, align 4, !tbaa !9
  %50 = load i32, ptr %6, align 4, !tbaa !9
  %51 = icmp ult i32 %49, %50
  br i1 %51, label %52, label %66

52:                                               ; preds = %48
  %53 = load ptr, ptr %9, align 8, !tbaa !16
  %54 = load i32, ptr %7, align 4, !tbaa !9
  %55 = zext i32 %54 to i64
  %56 = getelementptr inbounds nuw i8, ptr %53, i64 %55
  call void @llvm.memcpy.p0.p0.i64(ptr align 4 %11, ptr align 1 %56, i64 4, i1 false)
  %57 = load i32, ptr %11, align 4, !tbaa !9
  %58 = call i32 @ByteReverseWord32(i32 noundef %57)
  store i32 %58, ptr %11, align 4, !tbaa !9
  %59 = load ptr, ptr %10, align 8, !tbaa !16
  %60 = load i32, ptr %7, align 4, !tbaa !9
  %61 = zext i32 %60 to i64
  %62 = getelementptr inbounds nuw i8, ptr %59, i64 %61
  call void @llvm.memcpy.p0.p0.i64(ptr align 1 %62, ptr align 4 %11, i64 4, i1 false)
  br label %63

63:                                               ; preds = %52
  %64 = load i32, ptr %7, align 4, !tbaa !9
  %65 = add i32 %64, 4
  store i32 %65, ptr %7, align 4, !tbaa !9
  br label %48, !llvm.loop !23

66:                                               ; preds = %48
  call void @llvm.lifetime.end.p0(i64 4, ptr %11) #5
  call void @llvm.lifetime.end.p0(i64 8, ptr %10) #5
  call void @llvm.lifetime.end.p0(i64 8, ptr %9) #5
  br label %67

67:                                               ; preds = %66, %42
  call void @llvm.lifetime.end.p0(i64 4, ptr %7) #5
  ret void
}

; Function Attrs: nounwind uwtable
define void @wc_Sha256Free(ptr noundef %0) #0 {
  %2 = alloca ptr, align 8
  store ptr %0, ptr %2, align 8, !tbaa !3
  %3 = load ptr, ptr %2, align 8, !tbaa !3
  %4 = icmp eq ptr %3, null
  br i1 %4, label %5, label %6

5:                                                ; preds = %1
  br label %8

6:                                                ; preds = %1
  %7 = load ptr, ptr %2, align 8, !tbaa !3
  call void @ForceZero(ptr noundef %7, i32 noundef 128)
  br label %8

8:                                                ; preds = %6, %5
  ret void
}

; Function Attrs: nounwind uwtable
define i32 @wc_Sha256Final(ptr noundef %0, ptr noundef %1) #0 {
  %3 = alloca i32, align 4
  %4 = alloca ptr, align 8
  %5 = alloca ptr, align 8
  %6 = alloca i32, align 4
  %7 = alloca i32, align 4
  store ptr %0, ptr %4, align 8, !tbaa !3
  store ptr %1, ptr %5, align 8, !tbaa !16
  call void @llvm.lifetime.start.p0(i64 4, ptr %6) #5
  %8 = load ptr, ptr %4, align 8, !tbaa !3
  %9 = icmp eq ptr %8, null
  br i1 %9, label %13, label %10

10:                                               ; preds = %2
  %11 = load ptr, ptr %5, align 8, !tbaa !16
  %12 = icmp eq ptr %11, null
  br i1 %12, label %13, label %14

13:                                               ; preds = %10, %2
  store i32 -173, ptr %3, align 4
  store i32 1, ptr %7, align 4
  br label %34

14:                                               ; preds = %10
  %15 = load ptr, ptr %4, align 8, !tbaa !3
  %16 = call i32 @Sha256Final(ptr noundef %15)
  store i32 %16, ptr %6, align 4, !tbaa !9
  %17 = load i32, ptr %6, align 4, !tbaa !9
  %18 = icmp ne i32 %17, 0
  br i1 %18, label %19, label %21

19:                                               ; preds = %14
  %20 = load i32, ptr %6, align 4, !tbaa !9
  store i32 %20, ptr %3, align 4
  store i32 1, ptr %7, align 4
  br label %34

21:                                               ; preds = %14
  %22 = load ptr, ptr %4, align 8, !tbaa !3
  %23 = getelementptr inbounds nuw %struct.wc_Sha256, ptr %22, i32 0, i32 0
  %24 = getelementptr inbounds [8 x i32], ptr %23, i64 0, i64 0
  %25 = load ptr, ptr %4, align 8, !tbaa !3
  %26 = getelementptr inbounds nuw %struct.wc_Sha256, ptr %25, i32 0, i32 0
  %27 = getelementptr inbounds [8 x i32], ptr %26, i64 0, i64 0
  call void @ByteReverseWords(ptr noundef %24, ptr noundef %27, i32 noundef 32)
  %28 = load ptr, ptr %5, align 8, !tbaa !16
  %29 = load ptr, ptr %4, align 8, !tbaa !3
  %30 = getelementptr inbounds nuw %struct.wc_Sha256, ptr %29, i32 0, i32 0
  %31 = getelementptr inbounds [8 x i32], ptr %30, i64 0, i64 0
  call void @llvm.memcpy.p0.p0.i64(ptr align 1 %28, ptr align 16 %31, i64 32, i1 false)
  %32 = load ptr, ptr %4, align 8, !tbaa !3
  %33 = call i32 @InitSha256(ptr noundef %32)
  store i32 %33, ptr %3, align 4
  store i32 1, ptr %7, align 4
  br label %34

34:                                               ; preds = %21, %19, %13
  call void @llvm.lifetime.end.p0(i64 4, ptr %6) #5
  %35 = load i32, ptr %3, align 4
  ret i32 %35
}

; Function Attrs: nounwind uwtable
define i32 @wc_Sha256Copy(ptr noundef %0, ptr noundef %1) #0 {
  %3 = alloca i32, align 4
  %4 = alloca ptr, align 8
  %5 = alloca ptr, align 8
  %6 = alloca i32, align 4
  %7 = alloca i32, align 4
  store ptr %0, ptr %4, align 8, !tbaa !3
  store ptr %1, ptr %5, align 8, !tbaa !3
  call void @llvm.lifetime.start.p0(i64 4, ptr %6) #5
  store i32 0, ptr %6, align 4, !tbaa !9
  %8 = load ptr, ptr %4, align 8, !tbaa !3
  %9 = icmp eq ptr %8, null
  br i1 %9, label %13, label %10

10:                                               ; preds = %2
  %11 = load ptr, ptr %5, align 8, !tbaa !3
  %12 = icmp eq ptr %11, null
  br i1 %12, label %13, label %14

13:                                               ; preds = %10, %2
  store i32 -173, ptr %3, align 4
  store i32 1, ptr %7, align 4
  br label %18

14:                                               ; preds = %10
  %15 = load ptr, ptr %5, align 8, !tbaa !3
  %16 = load ptr, ptr %4, align 8, !tbaa !3
  call void @llvm.memcpy.p0.p0.i64(ptr align 16 %15, ptr align 16 %16, i64 128, i1 false)
  %17 = load i32, ptr %6, align 4, !tbaa !9
  store i32 %17, ptr %3, align 4
  store i32 1, ptr %7, align 4
  br label %18

18:                                               ; preds = %14, %13
  call void @llvm.lifetime.end.p0(i64 4, ptr %6) #5
  %19 = load i32, ptr %3, align 4
  ret i32 %19
}

; Function Attrs: nounwind uwtable
define i32 @wc_Sha256GetHash(ptr noundef %0, ptr noundef %1) #0 {
  %3 = alloca i32, align 4
  %4 = alloca ptr, align 8
  %5 = alloca ptr, align 8
  %6 = alloca i32, align 4
  %7 = alloca [1 x %struct.wc_Sha256], align 16
  %8 = alloca i32, align 4
  store ptr %0, ptr %4, align 8, !tbaa !3
  store ptr %1, ptr %5, align 8, !tbaa !16
  call void @llvm.lifetime.start.p0(i64 4, ptr %6) #5
  call void @llvm.lifetime.start.p0(i64 128, ptr %7) #5
  %9 = load ptr, ptr %4, align 8, !tbaa !3
  %10 = icmp eq ptr %9, null
  br i1 %10, label %14, label %11

11:                                               ; preds = %2
  %12 = load ptr, ptr %5, align 8, !tbaa !16
  %13 = icmp eq ptr %12, null
  br i1 %13, label %14, label %15

14:                                               ; preds = %11, %2
  store i32 -173, ptr %3, align 4
  store i32 1, ptr %8, align 4
  br label %28

15:                                               ; preds = %11
  %16 = load ptr, ptr %4, align 8, !tbaa !3
  %17 = getelementptr inbounds [1 x %struct.wc_Sha256], ptr %7, i64 0, i64 0
  %18 = call i32 @wc_Sha256Copy(ptr noundef %16, ptr noundef %17)
  store i32 %18, ptr %6, align 4, !tbaa !9
  %19 = load i32, ptr %6, align 4, !tbaa !9
  %20 = icmp eq i32 %19, 0
  br i1 %20, label %21, label %26

21:                                               ; preds = %15
  %22 = getelementptr inbounds [1 x %struct.wc_Sha256], ptr %7, i64 0, i64 0
  %23 = load ptr, ptr %5, align 8, !tbaa !16
  %24 = call i32 @wc_Sha256Final(ptr noundef %22, ptr noundef %23)
  store i32 %24, ptr %6, align 4, !tbaa !9
  %25 = getelementptr inbounds [1 x %struct.wc_Sha256], ptr %7, i64 0, i64 0
  call void @wc_Sha256Free(ptr noundef %25)
  br label %26

26:                                               ; preds = %21, %15
  %27 = load i32, ptr %6, align 4, !tbaa !9
  store i32 %27, ptr %3, align 4
  store i32 1, ptr %8, align 4
  br label %28

28:                                               ; preds = %26, %14
  call void @llvm.lifetime.end.p0(i64 128, ptr %7) #5
  call void @llvm.lifetime.end.p0(i64 4, ptr %6) #5
  %29 = load i32, ptr %3, align 4
  ret i32 %29
}