; Function Attrs: nofree norecurse nounwind memory(argmem: readwrite, inaccessiblemem: readwrite) uwtable
define range(i32 -192, 1) i32 @wc_Sha256GetHash(ptr noundef readonly captures(address_is_null) %0, ptr noundef writeonly captures(address_is_null) %1) local_unnamed_addr #5 {
  %3 = alloca [1 x %struct.wc_Sha256], align 16
  call void @llvm.lifetime.start.p0(i64 128, ptr nonnull %3) #9
  %4 = icmp eq ptr %0, null
  %5 = icmp eq ptr %1, null
  %or.cond = or i1 %4, %5
  br i1 %or.cond, label %wc_Sha256Free.exit, label %6

6:                                                ; preds = %2
  call void @llvm.memcpy.p0.p0.i64(ptr noundef nonnull align 16 dereferenceable(128) %3, ptr noundef nonnull readonly align 16 dereferenceable(128) %0, i64 128, i1 false)
  %7 = call fastcc i32 @Sha256Final(ptr noundef nonnull %3)
  %.not.i = icmp eq i32 %7, 0
  br i1 %.not.i, label %.lr.ph26.i.i, label %.lr.ph29.preheader.i.i

.lr.ph26.i.i:                                     ; preds = %6, %.lr.ph26.i.i
  %indvars.iv30.i.i = phi i64 [ %indvars.iv.next31.i.i, %.lr.ph26.i.i ], [ 0, %6 ]
  %8 = getelementptr inbounds nuw i32, ptr %3, i64 %indvars.iv30.i.i
  %9 = load i32, ptr %8, align 4, !tbaa !3
  %10 = call noundef i32 @llvm.bswap.i32(i32 %9)
  store i32 %10, ptr %8, align 4, !tbaa !3
  %indvars.iv.next31.i.i = add nuw nsw i64 %indvars.iv30.i.i, 1
  %exitcond.not.i.i = icmp eq i64 %indvars.iv.next31.i.i, 8
  br i1 %exitcond.not.i.i, label %ByteReverseWords.exit.i, label %.lr.ph26.i.i, !llvm.loop !13

ByteReverseWords.exit.i:                          ; preds = %.lr.ph26.i.i
  call void @llvm.memcpy.p0.p0.i64(ptr noundef nonnull align 1 dereferenceable(32) %1, ptr noundef nonnull align 16 dereferenceable(32) %3, i64 32, i1 false)
  br label %.lr.ph29.preheader.i.i

.lr.ph29.preheader.i.i:                           ; preds = %ByteReverseWords.exit.i, %6
  %.0.i11 = phi i32 [ 0, %ByteReverseWords.exit.i ], [ %7, %6 ]
  br label %.lr.ph29.i.i

.lr.ph29.i.i:                                     ; preds = %.lr.ph29.i.i, %.lr.ph29.preheader.i.i
  %.01528.i.i = phi ptr [ %11, %.lr.ph29.i.i ], [ %3, %.lr.ph29.preheader.i.i ]
  %.01827.i.i = phi i32 [ %12, %.lr.ph29.i.i ], [ 128, %.lr.ph29.preheader.i.i ]
  %11 = getelementptr inbounds nuw i8, ptr %.01528.i.i, i64 8
  store volatile i64 0, ptr %.01528.i.i, align 8, !tbaa !18
  %12 = add nsw i32 %.01827.i.i, -8
  %.not = icmp eq i32 %12, 0
  br i1 %.not, label %wc_Sha256Free.exit, label %.lr.ph29.i.i, !llvm.loop !20

wc_Sha256Free.exit:                               ; preds = %.lr.ph29.i.i, %2
  %.07 = phi i32 [ -173, %2 ], [ %.0.i11, %.lr.ph29.i.i ]
  call void @llvm.lifetime.end.p0(i64 128, ptr nonnull %3) #9
  ret i32 %.07
}